target datalayout = "e-m:e-p270:32:32-p271:32:32-p272:64:64-i64:64-i128:128-f80:128-n8:16:32:64-S128"
target triple = "x86_64-pc-linux-gnu"

%"class.std::__cxx11::basic_string" = type { %"struct.std::__cxx11::basic_string<char>::_Alloc_hider", i64, %union.anon }
%"struct.std::__cxx11::basic_string<char>::_Alloc_hider" = type { ptr }
%union.anon = type { i64, [8 x i8] }
%class.QString = type { ptr }
%"class.std::allocator.16" = type { i8 }

@__dso_handle = external hidden global i8
@_ZTI11MLException = linkonce_odr constant { ptr, ptr, ptr } { ptr getelementptr inbounds (ptr, ptr @_ZTVN10__cxxabiv120__si_class_type_infoE, i64 2), ptr @_ZTS11MLException, ptr @_ZTISt9exception }, comdat, align 8
@_ZZNK20FilterFunctionPlugin18checkAttributeNameERKNSt7__cxx1112basic_stringIcSt11char_traitsIcESaIcEEEE10validCharsB5cxx11 = internal global %"class.std::__cxx11::basic_string" zeroinitializer, align 8
@_ZGVZNK20FilterFunctionPlugin18checkAttributeNameERKNSt7__cxx1112basic_stringIcSt11char_traitsIcESaIcEEEE10validCharsB5cxx11 = internal global i64 0, align 8
@.str.353 = private unnamed_addr constant [64 x i8] c"0123456789_abcdefghijklmnopqrstuvwxyzABCDEFGHIJKLMNOPQRSTUVWXYZ\00", align 1
@.str.354 = private unnamed_addr constant [101 x i8] c"Invalid Attribute name: only letters, numbers and underscores are allowed in custom attribute names.\00", align 1

; Function Attrs: mustprogress uwtable
define linkonce_odr void @_ZN7QStringC2EPKc(ptr noundef nonnull align 8 dereferenceable(8) %0, ptr noundef %1) unnamed_addr #5 comdat align 2 {
  %3 = alloca ptr, align 8
  %4 = alloca ptr, align 8
  store ptr %0, ptr %3, align 8
  store ptr %1, ptr %4, align 8
  %5 = load ptr, ptr %3, align 8
  %6 = getelementptr inbounds %class.QString, ptr %5, i32 0, i32 0
  %7 = load ptr, ptr %4, align 8
  %8 = load ptr, ptr %4, align 8
  %9 = icmp ne ptr %8, null
  br i1 %9, label %10, label %14

10:                                               ; preds = %2
  %11 = load ptr, ptr %4, align 8
  %12 = call i64 @strlen(ptr noundef %11) #25
  %13 = trunc i64 %12 to i32
  br label %15

14:                                               ; preds = %2
  br label %15

15:                                               ; preds = %14, %10
  %16 = phi i32 [ %13, %10 ], [ -1, %14 ]
  %17 = call noundef ptr @_ZN7QString16fromAscii_helperEPKci(ptr noundef %7, i32 noundef %16)
  store ptr %17, ptr %6, align 8
  ret void
}

; Function Attrs: mustprogress uwtable
define void @_ZNK20FilterFunctionPlugin18checkAttributeNameERKNSt7__cxx1112basic_stringIcSt11char_traitsIcESaIcEEE(ptr noundef nonnull align 8 dereferenceable(1048) %0, ptr noundef nonnull align 8 dereferenceable(32) %1) #5 align 2 personality ptr @__gxx_personality_v0 {
  %3 = alloca ptr, align 8
  %4 = alloca ptr, align 8
  %5 = alloca %"class.std::allocator.16", align 1
  %6 = alloca ptr, align 8
  %7 = alloca i32, align 4
  %8 = alloca %class.QString, align 8
  %9 = alloca i1, align 1
  store ptr %0, ptr %3, align 8
  store ptr %1, ptr %4, align 8
  %10 = load atomic i8, ptr @_ZGVZNK20FilterFunctionPlugin18checkAttributeNameERKNSt7__cxx1112basic_stringIcSt11char_traitsIcESaIcEEEE10validCharsB5cxx11 acquire, align 8
  %11 = icmp eq i8 %10, 0
  br i1 %11, label %12, label %18, !prof !52

12:                                               ; preds = %2
  %13 = call i32 @__cxa_guard_acquire(ptr @_ZGVZNK20FilterFunctionPlugin18checkAttributeNameERKNSt7__cxx1112basic_stringIcSt11char_traitsIcESaIcEEEE10validCharsB5cxx11) #3
  %14 = icmp ne i32 %13, 0
  br i1 %14, label %15, label %18

15:                                               ; preds = %12
  call void @_ZNSaIcEC1Ev(ptr noundef nonnull align 1 dereferenceable(1) %5) #3
  invoke void @_ZNSt7__cxx1112basic_stringIcSt11char_traitsIcESaIcEEC1EPKcRKS3_(ptr noundef nonnull align 8 dereferenceable(32) @_ZZNK20FilterFunctionPlugin18checkAttributeNameERKNSt7__cxx1112basic_stringIcSt11char_traitsIcESaIcEEEE10validCharsB5cxx11, ptr noundef @.str.353, ptr noundef nonnull align 1 dereferenceable(1) %5)
          to label %16 unwind label %42

16:                                               ; preds = %15
  call void @_ZNSaIcED1Ev(ptr noundef nonnull align 1 dereferenceable(1) %5) #3
  %17 = call i32 @__cxa_atexit(ptr @_ZNSt7__cxx1112basic_stringIcSt11char_traitsIcESaIcEED1Ev, ptr @_ZZNK20FilterFunctionPlugin18checkAttributeNameERKNSt7__cxx1112basic_stringIcSt11char_traitsIcESaIcEEEE10validCharsB5cxx11, ptr @__dso_handle) #3
  call void @__cxa_guard_release(ptr @_ZGVZNK20FilterFunctionPlugin18checkAttributeNameERKNSt7__cxx1112basic_stringIcSt11char_traitsIcESaIcEEEE10validCharsB5cxx11) #3
  br label %18

18:                                               ; preds = %16, %12, %2
  %19 = load ptr, ptr %4, align 8
  %20 = call noundef i64 @_ZNKSt7__cxx1112basic_stringIcSt11char_traitsIcESaIcEE6lengthEv(ptr noundef nonnull align 8 dereferenceable(32) %19) #3
  %21 = icmp ne i64 %20, 0
  br i1 %21, label %22, label %38

22:                                               ; preds = %18
  %23 = load ptr, ptr %4, align 8
  %24 = call noundef i64 @_ZNKSt7__cxx1112basic_stringIcSt11char_traitsIcESaIcEE17find_first_not_ofERKS4_m(ptr noundef nonnull align 8 dereferenceable(32) %23, ptr noundef nonnull align 8 dereferenceable(32) @_ZZNK20FilterFunctionPlugin18checkAttributeNameERKNSt7__cxx1112basic_stringIcSt11char_traitsIcESaIcEEEE10validCharsB5cxx11, i64 noundef 0) #3
  %25 = icmp ne i64 %24, -1
  br i1 %25, label %38, label %26

26:                                               ; preds = %22
  %27 = load ptr, ptr %4, align 8
  %28 = call noundef nonnull align 1 dereferenceable(1) ptr @_ZNKSt7__cxx1112basic_stringIcSt11char_traitsIcESaIcEEixEm(ptr noundef nonnull align 8 dereferenceable(32) %27, i64 noundef 0) #3
  %29 = load i8, ptr %28, align 1
  %30 = sext i8 %29 to i32
  %31 = icmp sge i32 %30, 48
  br i1 %31, label %32, label %58

32:                                               ; preds = %26
  %33 = load ptr, ptr %4, align 8
  %34 = call noundef nonnull align 1 dereferenceable(1) ptr @_ZNKSt7__cxx1112basic_stringIcSt11char_traitsIcESaIcEEixEm(ptr noundef nonnull align 8 dereferenceable(32) %33, i64 noundef 0) #3
  %35 = load i8, ptr %34, align 1
  %36 = sext i8 %35 to i32
  %37 = icmp sle i32 %36, 57
  br i1 %37, label %38, label %58

38:                                               ; preds = %32, %22, %18
  store i1 true, ptr %9, align 1
  %39 = call ptr @__cxa_allocate_exception(i64 24) #3
  invoke void @_ZN7QStringC2EPKc(ptr noundef nonnull align 8 dereferenceable(8) %8, ptr noundef @.str.354)
          to label %40 unwind label %46

40:                                               ; preds = %38
  invoke void @_ZN11MLExceptionC2ERK7QString(ptr noundef nonnull align 8 dereferenceable(24) %39, ptr noundef nonnull align 8 dereferenceable(8) %8)
          to label %41 unwind label %50

41:                                               ; preds = %40
  store i1 false, ptr %9, align 1
  invoke void @__cxa_throw(ptr %39, ptr @_ZTI11MLException, ptr @_ZN11MLExceptionD2Ev) #22
          to label %64 unwind label %50

42:                                               ; preds = %15
  %43 = landingpad { ptr, i32 }
          cleanup
  %44 = extractvalue { ptr, i32 } %43, 0
  store ptr %44, ptr %6, align 8
  %45 = extractvalue { ptr, i32 } %43, 1
  store i32 %45, ptr %7, align 4
  call void @_ZNSaIcED1Ev(ptr noundef nonnull align 1 dereferenceable(1) %5) #3
  call void @__cxa_guard_abort(ptr @_ZGVZNK20FilterFunctionPlugin18checkAttributeNameERKNSt7__cxx1112basic_stringIcSt11char_traitsIcESaIcEEEE10validCharsB5cxx11) #3
  br label %59

46:                                               ; preds = %38
  %47 = landingpad { ptr, i32 }
          cleanup
  %48 = extractvalue { ptr, i32 } %47, 0
  store ptr %48, ptr %6, align 8
  %49 = extractvalue { ptr, i32 } %47, 1
  store i32 %49, ptr %7, align 4
  br label %54

50:                                               ; preds = %41, %40
  %51 = landingpad { ptr, i32 }
          cleanup
  %52 = extractvalue { ptr, i32 } %51, 0
  store ptr %52, ptr %6, align 8
  %53 = extractvalue { ptr, i32 } %51, 1
  store i32 %53, ptr %7, align 4
  call void @_ZN7QStringD2Ev(ptr noundef nonnull align 8 dereferenceable(8) %8) #3
  br label %54

54:                                               ; preds = %50, %46
  %55 = load i1, ptr %9, align 1
  br i1 %55, label %56, label %57

56:                                               ; preds = %54
  call void @__cxa_free_exception(ptr %39) #3
  br label %57

57:                                               ; preds = %56, %54
  br label %59

58:                                               ; preds = %32, %26
  ret void

59:                                               ; preds = %57, %42
  %60 = load ptr, ptr %6, align 8
  %61 = load i32, ptr %7, align 4
  %62 = insertvalue { ptr, i32 } poison, ptr %60, 0
  %63 = insertvalue { ptr, i32 } %62, i32 %61, 1
  resume { ptr, i32 } %63

64:                                               ; preds = %41
  unreachable
}