; Function Attrs: mustprogress uwtable
define void @_ZNK20FilterFunctionPlugin18checkAttributeNameERKNSt7__cxx1112basic_stringIcSt11char_traitsIcESaIcEEE(ptr nocapture nonnull readnone align 8 %0, ptr noundef nonnull align 8 dereferenceable(32) %1) local_unnamed_addr #9 align 2 personality ptr @__gxx_personality_v0 {
  %3 = alloca %"class.std::allocator.16", align 1
  %4 = alloca %class.QString, align 8
  %5 = load atomic i8, ptr @_ZGVZNK20FilterFunctionPlugin18checkAttributeNameERKNSt7__cxx1112basic_stringIcSt11char_traitsIcESaIcEEEE10validCharsB5cxx11 acquire, align 8
  %6 = icmp eq i8 %5, 0
  br i1 %6, label %7, label %12, !prof !152

7:                                                ; preds = %2
  %8 = tail call i32 @__cxa_guard_acquire(ptr nonnull @_ZGVZNK20FilterFunctionPlugin18checkAttributeNameERKNSt7__cxx1112basic_stringIcSt11char_traitsIcESaIcEEEE10validCharsB5cxx11) #27
  %.not = icmp eq i32 %8, 0
  br i1 %.not, label %12, label %9

9:                                                ; preds = %7
  call void @_ZNSaIcEC1Ev(ptr noundef nonnull align 1 dereferenceable(1) %3) #27
  invoke void @_ZNSt7__cxx1112basic_stringIcSt11char_traitsIcESaIcEEC1EPKcRKS3_(ptr noundef nonnull align 8 dereferenceable(32) @_ZZNK20FilterFunctionPlugin18checkAttributeNameERKNSt7__cxx1112basic_stringIcSt11char_traitsIcESaIcEEEE10validCharsB5cxx11, ptr noundef nonnull @.str.353, ptr noundef nonnull align 1 dereferenceable(1) %3)
          to label %10 unwind label %30

10:                                               ; preds = %9
  call void @_ZNSaIcED1Ev(ptr noundef nonnull align 1 dereferenceable(1) %3) #27
  %11 = call i32 @__cxa_atexit(ptr nonnull @_ZNSt7__cxx1112basic_stringIcSt11char_traitsIcESaIcEED1Ev, ptr nonnull @_ZZNK20FilterFunctionPlugin18checkAttributeNameERKNSt7__cxx1112basic_stringIcSt11char_traitsIcESaIcEEEE10validCharsB5cxx11, ptr nonnull @__dso_handle) #27
  call void @__cxa_guard_release(ptr nonnull @_ZGVZNK20FilterFunctionPlugin18checkAttributeNameERKNSt7__cxx1112basic_stringIcSt11char_traitsIcESaIcEEEE10validCharsB5cxx11) #27
  br label %12

12:                                               ; preds = %10, %7, %2
  %13 = call noundef i64 @_ZNKSt7__cxx1112basic_stringIcSt11char_traitsIcESaIcEE6lengthEv(ptr noundef nonnull align 8 dereferenceable(32) %1) #27
  %.not10 = icmp eq i64 %13, 0
  br i1 %.not10, label %24, label %14

14:                                               ; preds = %12
  %15 = call noundef i64 @_ZNKSt7__cxx1112basic_stringIcSt11char_traitsIcESaIcEE17find_first_not_ofERKS4_m(ptr noundef nonnull align 8 dereferenceable(32) %1, ptr noundef nonnull align 8 dereferenceable(32) @_ZZNK20FilterFunctionPlugin18checkAttributeNameERKNSt7__cxx1112basic_stringIcSt11char_traitsIcESaIcEEEE10validCharsB5cxx11, i64 noundef 0) #27
  %.not11 = icmp eq i64 %15, -1
  br i1 %.not11, label %16, label %24

16:                                               ; preds = %14
  %17 = call noundef nonnull align 1 dereferenceable(1) ptr @_ZNKSt7__cxx1112basic_stringIcSt11char_traitsIcESaIcEEixEm(ptr noundef nonnull align 8 dereferenceable(32) %1, i64 noundef 0) #27
  %18 = load i8, ptr %17, align 1
  %19 = icmp sgt i8 %18, 47
  br i1 %19, label %20, label %36

20:                                               ; preds = %16
  %21 = call noundef nonnull align 1 dereferenceable(1) ptr @_ZNKSt7__cxx1112basic_stringIcSt11char_traitsIcESaIcEEixEm(ptr noundef nonnull align 8 dereferenceable(32) %1, i64 noundef 0) #27
  %22 = load i8, ptr %21, align 1
  %23 = icmp slt i8 %22, 58
  br i1 %23, label %24, label %36

24:                                               ; preds = %20, %14, %12
  %25 = call ptr @__cxa_allocate_exception(i64 24) #27
  %26 = invoke noundef ptr @_ZN7QString16fromAscii_helperEPKci(ptr noundef nonnull @.str.354, i32 noundef 100)
          to label %27 unwind label %.thread

27:                                               ; preds = %24
  store ptr %26, ptr %4, align 8
  invoke void @_ZN11MLExceptionC2ERK7QString(ptr noundef nonnull align 8 dereferenceable(24) %25, ptr noundef nonnull align 8 dereferenceable(8) %4)
          to label %29 unwind label %.thread17

.thread17:                                        ; preds = %27
  %28 = landingpad { ptr, i32 }
          cleanup
  call void @_ZN7QStringD2Ev(ptr noundef nonnull align 8 dereferenceable(8) %4) #27
  br label %35

29:                                               ; preds = %27
  invoke void @__cxa_throw(ptr nonnull %25, ptr nonnull @_ZTI11MLException, ptr nonnull @_ZN11MLExceptionD2Ev) #31
          to label %38 unwind label %33

30:                                               ; preds = %9
  %31 = landingpad { ptr, i32 }
          cleanup
  call void @_ZNSaIcED1Ev(ptr noundef nonnull align 1 dereferenceable(1) %3) #27
  call void @__cxa_guard_abort(ptr nonnull @_ZGVZNK20FilterFunctionPlugin18checkAttributeNameERKNSt7__cxx1112basic_stringIcSt11char_traitsIcESaIcEEEE10validCharsB5cxx11) #27
  br label %37

.thread:                                          ; preds = %24
  %32 = landingpad { ptr, i32 }
          cleanup
  br label %35

33:                                               ; preds = %29
  %34 = landingpad { ptr, i32 }
          cleanup
  call void @_ZN7QStringD2Ev(ptr noundef nonnull align 8 dereferenceable(8) %4) #27
  br label %37

35:                                               ; preds = %.thread17, %.thread
  %.pn16 = phi { ptr, i32 } [ %32, %.thread ], [ %28, %.thread17 ]
  call void @__cxa_free_exception(ptr %25) #27
  br label %37

36:                                               ; preds = %20, %16
  ret void

37:                                               ; preds = %33, %35, %30
  %.pn.pn = phi { ptr, i32 } [ %.pn16, %35 ], [ %34, %33 ], [ %31, %30 ]
  resume { ptr, i32 } %.pn.pn

38:                                               ; preds = %29
  unreachable
}